; Function Attrs: nounwind uwtable
define ptr @l_Std_Range_forIn_x27_loop___at_Lean_PrettyPrinter_Delaborator_TopDownAnalyze_analyzeAppStagedCore_applyFunBinderHeuristic_core___spec__2___lambda__1___boxed(ptr noundef %0, ptr noundef %1, ptr noundef %2, ptr noundef %3, ptr noundef %4, ptr noundef %5, ptr noundef %6, ptr noundef %7, ptr noundef %8, ptr noundef %9, ptr noundef %10) #1 {
  %12 = tail call ptr @l_Std_Range_forIn_x27_loop___at_Lean_PrettyPrinter_Delaborator_TopDownAnalyze_analyzeAppStagedCore_applyFunBinderHeuristic_core___spec__2___lambda__1(ptr noundef %0, ptr noundef %1, ptr poison, ptr noundef %3, ptr poison, ptr poison, ptr noundef %6, ptr noundef %7, ptr noundef %8, ptr noundef %9, ptr noundef %10)
  %13 = ptrtoint ptr %5 to i64
  %14 = and i64 %13, 1
  %.not = icmp eq i64 %14, 0
  br i1 %.not, label %15, label %lean_dec.exit16

15:                                               ; preds = %11
  %16 = load i32, ptr %5, align 4, !tbaa !8
  %17 = icmp sgt i32 %16, 1
  br i1 %17, label %18, label %20, !prof !13

18:                                               ; preds = %15
  %19 = add nsw i32 %16, -1
  store i32 %19, ptr %5, align 4, !tbaa !8
  br label %lean_dec.exit16

20:                                               ; preds = %15
  %.not.i = icmp eq i32 %16, 0
  br i1 %.not.i, label %lean_dec.exit16, label %21

21:                                               ; preds = %20
  tail call void @lean_dec_ref_cold(ptr noundef nonnull %5) #7
  br label %lean_dec.exit16

lean_dec.exit16:                                  ; preds = %21, %20, %18, %11
  %22 = ptrtoint ptr %4 to i64
  %23 = and i64 %22, 1
  %.not21 = icmp eq i64 %23, 0
  br i1 %.not21, label %24, label %lean_dec.exit15

24:                                               ; preds = %lean_dec.exit16
  %25 = load i32, ptr %4, align 4, !tbaa !8
  %26 = icmp sgt i32 %25, 1
  br i1 %26, label %27, label %29, !prof !13

27:                                               ; preds = %24
  %28 = add nsw i32 %25, -1
  store i32 %28, ptr %4, align 4, !tbaa !8
  br label %lean_dec.exit15

29:                                               ; preds = %24
  %.not.i17 = icmp eq i32 %25, 0
  br i1 %.not.i17, label %lean_dec.exit15, label %30

30:                                               ; preds = %29
  tail call void @lean_dec_ref_cold(ptr noundef nonnull %4) #7
  br label %lean_dec.exit15

lean_dec.exit15:                                  ; preds = %30, %29, %27, %lean_dec.exit16
  %31 = ptrtoint ptr %2 to i64
  %32 = and i64 %31, 1
  %.not22 = icmp eq i64 %32, 0
  br i1 %.not22, label %33, label %lean_dec.exit

33:                                               ; preds = %lean_dec.exit15
  %34 = load i32, ptr %2, align 4, !tbaa !8
  %35 = icmp sgt i32 %34, 1
  br i1 %35, label %36, label %38, !prof !13

36:                                               ; preds = %33
  %37 = add nsw i32 %34, -1
  store i32 %37, ptr %2, align 4, !tbaa !8
  br label %lean_dec.exit

38:                                               ; preds = %33
  %.not.i19 = icmp eq i32 %34, 0
  br i1 %.not.i19, label %lean_dec.exit, label %39

39:                                               ; preds = %38
  tail call void @lean_dec_ref_cold(ptr noundef nonnull %2) #7
  br label %lean_dec.exit

lean_dec.exit:                                    ; preds = %39, %38, %36, %lean_dec.exit15
  ret ptr %12
}